; Function Attrs: mustprogress uwtable
define internal fastcc void @_ZN12_GLOBAL__N_110add_borderERKN2cv3MatEiiRKNS0_7Scalar_IdEE(ptr dead_on_unwind noalias nonnull writable align 8 %0, ptr noundef nonnull align 8 dereferenceable(96) %1, i32 noundef %2, i32 noundef %3, ptr noundef nonnull align 8 dereferenceable(32) %4) unnamed_addr #3 personality ptr @__gxx_personality_v0 {
  %6 = alloca %"class.cv::Mat", align 8
  %7 = alloca %"class.cv::_InputArray", align 8
  %8 = alloca %"class.cv::_OutputArray", align 8
  %9 = alloca %"class.cv::Rect_", align 4
  %10 = icmp eq i32 %3, 0
  br i1 %10, label %11, label %32

11:                                               ; preds = %5
  call void @llvm.lifetime.start.p0(i64 96, ptr nonnull %6) #25
  call void @_ZN2cv3MatC1Ev(ptr noundef nonnull align 8 dereferenceable(96) %6) #25
  %12 = add nsw i32 %2, -1
  %13 = sdiv i32 %12, 2
  call void @llvm.lifetime.start.p0(i64 24, ptr nonnull %7) #25
  %14 = getelementptr inbounds nuw i8, ptr %7, i64 16
  store i32 0, ptr %14, align 8, !tbaa !120
  %15 = getelementptr inbounds nuw i8, ptr %7, i64 20
  store i32 0, ptr %15, align 4, !tbaa !122
  store i32 16842752, ptr %7, align 8, !tbaa !123
  %16 = getelementptr inbounds nuw i8, ptr %7, i64 8
  store ptr %1, ptr %16, align 8, !tbaa !125
  call void @llvm.lifetime.start.p0(i64 24, ptr nonnull %8) #25
  %17 = getelementptr inbounds nuw i8, ptr %8, i64 8
  %18 = getelementptr inbounds nuw i8, ptr %8, i64 16
  store i64 0, ptr %18, align 8
  store i32 33619968, ptr %8, align 8, !tbaa !123
  store ptr %6, ptr %17, align 8, !tbaa !125
  invoke void @_ZN2cv14copyMakeBorderERKNS_11_InputArrayERKNS_12_OutputArrayEiiiiiRKNS_7Scalar_IdEE(ptr noundef nonnull align 8 dereferenceable(24) %7, ptr noundef nonnull align 8 dereferenceable(24) %8, i32 noundef %13, i32 noundef %13, i32 noundef %13, i32 noundef %13, i32 noundef 0, ptr noundef nonnull align 8 dereferenceable(32) %4)
          to label %19 unwind label %27

19:                                               ; preds = %11
  call void @llvm.lifetime.end.p0(i64 24, ptr nonnull %8) #25
  call void @llvm.lifetime.end.p0(i64 24, ptr nonnull %7) #25
  call void @llvm.lifetime.start.p0(i64 16, ptr nonnull %9) #25
  %20 = getelementptr inbounds nuw i8, ptr %1, i64 12
  %21 = load i32, ptr %20, align 4, !tbaa !118
  %22 = getelementptr inbounds nuw i8, ptr %1, i64 8
  %23 = load i32, ptr %22, align 8, !tbaa !119
  store i32 %13, ptr %9, align 4, !tbaa !126
  %24 = getelementptr inbounds nuw i8, ptr %9, i64 4
  store i32 %13, ptr %24, align 4, !tbaa !128
  %25 = getelementptr inbounds nuw i8, ptr %9, i64 8
  store i32 %21, ptr %25, align 4, !tbaa !129
  %26 = getelementptr inbounds nuw i8, ptr %9, i64 12
  store i32 %23, ptr %26, align 4, !tbaa !130
  invoke void @_ZN2cv3MatC1ERKS0_RKNS_5Rect_IiEE(ptr noundef nonnull align 8 dereferenceable(96) %0, ptr noundef nonnull align 8 dereferenceable(96) %6, ptr noundef nonnull align 4 dereferenceable(16) %9)
          to label %_ZNK2cv3MatclERKNS_5Rect_IiEE.exit unwind label %29

_ZNK2cv3MatclERKNS_5Rect_IiEE.exit:               ; preds = %19
  call void @llvm.lifetime.end.p0(i64 16, ptr nonnull %9) #25
  call void @_ZN2cv3MatD1Ev(ptr noundef nonnull align 8 dereferenceable(96) %6) #25
  call void @llvm.lifetime.end.p0(i64 96, ptr nonnull %6) #25
  br label %33

27:                                               ; preds = %11
  %28 = landingpad { ptr, i32 }
          cleanup
  call void @llvm.lifetime.end.p0(i64 24, ptr nonnull %8) #25
  call void @llvm.lifetime.end.p0(i64 24, ptr nonnull %7) #25
  br label %31

29:                                               ; preds = %19
  %30 = landingpad { ptr, i32 }
          cleanup
  call void @llvm.lifetime.end.p0(i64 16, ptr nonnull %9) #25
  br label %31

31:                                               ; preds = %29, %27
  %.pn21 = phi { ptr, i32 } [ %30, %29 ], [ %28, %27 ]
  call void @_ZN2cv3MatD1Ev(ptr noundef nonnull align 8 dereferenceable(96) %6) #25
  call void @llvm.lifetime.end.p0(i64 96, ptr nonnull %6) #25
  resume { ptr, i32 } %.pn21

32:                                               ; preds = %5
  tail call void @_ZN2cv3MatC1ERKS0_(ptr noundef nonnull align 8 dereferenceable(96) %0, ptr noundef nonnull align 8 dereferenceable(96) %1)
  br label %33

33:                                               ; preds = %32, %_ZNK2cv3MatclERKNS_5Rect_IiEE.exit
  ret void
}